unit unitGenerico;

interface

uses
  Windows, Messages, SysUtils, Classes, Graphics,
  Controls, Forms, Dialogs, StdCtrls, Menus, DB, ImgList, Grids, DBGrids,
  ComCtrls, ToolWin, Buttons, ExtCtrls
type
  TfrmGenerico=class(TForm)
    pnlLoc: TPanel;
    tbrGenerico: TToolBar;
    StatusBar1: TStatusBar;
    pnlGenerico: TPanel;
    dbgGenerico: TDBGrid;
    imgLista: TImageList;
    dsGenerico: TDataSource;
    btnIncluir: TToolButton;
    btnAlterar: TToolButton;
    btnExcluir: TToolButton;
    ToolButton4: TToolButton;
    btnAtualizar: TToolButton;
    ToolButton6: TToolButton;
    btnImp: TToolButton;
    ToolButton8: TToolButton;
    btnRetornar: TToolButton;
    menGenerico: TMainMenu;
    Ao1: TMenuItem;
    IncluirNovo1: TMenuItem;
    EditarAlterar1: TMenuItem;
    ExcluirApagar1: TMenuItem;
    N1: TMenuItem;
    Sair1: TMenuItem;
    Emisso1: TMenuItem;
    N2: TMenuItem;
    Sobre1: TMenuItem;
    Panel1: TPanel;
    btnLocalizar: TBitBtn;
    cboCampo: TComboBox;
    cboOp: TComboBox;
    edtFiltro: TEdit;
    ToolButton2: TToolButton;
    btnLoc: TToolButton;
    a1: TMenuItem;
    b1: TMenuItem;
    lbltabela: TLabel;
    lblTipo: TLabel;
    lblcampo: TLabel;
    procedure btnRetornarClick(Sender : TObject);
    procedure btnIncluirClick(Sender : TObject);
    procedure btnAlterarClick(Sender : TObject);
    procedure btnExcluirClick(Sender : TObject);
    procedure btnAtualizarClick(Sender : TObject);
    procedure Sobre1Click(Sender : TObject);
    procedure btnLocClick(Sender : TObject);
    procedure btnLocalizarClick(Sender : TObject);
    procedure FormShow(Sender : TObject);
    procedure FormClose(Sender : TObject);
    procedure edtFiltroKeyPress(Sender : TObject);
    procedure _PROC_0051354B(Sender : TObject);
    procedure _PROC_00513909(Sender : TObject);
    procedure _PROC_00513938(Sender : TObject);
    procedure _PROC_00513940(Sender : TObject);
    procedure _PROC_00513A12(Sender : TObject);
  private
    { Private declarations }
  public
    { Public declarations }
  end ;

var
  frmGenerico: TfrmGenerico;

{This file is generated by DeDe Ver 3.50.04 Copyright (c) 1999-2002 DaFixer}

implementation

{$R *.DFM}

procedure TfrmGenerico.btnRetornarClick(Sender : TObject);
begin
(*

* Reference to: Forms.TCustomForm.Close(TCustomForm);
|
00513448   E88394F7FF             call    0048C8D0
0051344D   C3                     ret

*)
end;

procedure TfrmGenerico.btnIncluirClick(Sender : TObject);
begin
(*

* Reference to control TfrmGenerico.dsGenerico : TDataSource
|
00513450   8B8010030000           mov     eax, [eax+$0310]

* Reference to field TDataSource.DataSet : TDataSet
|
00513456   8B4030                 mov     eax, [eax+$30]

* Reference to: DB.TDataSet.Insert(TDataSet);
|
00513459   E876A0F9FF             call    004AD4D4
0051345E   C3                     ret

*)
end;

procedure TfrmGenerico.btnAlterarClick(Sender : TObject);
begin
(*

* Reference to control TfrmGenerico.dsGenerico : TDataSource
|
00513460   8B8010030000           mov     eax, [eax+$0310]

* Reference to field TDataSource.DataSet : TDataSet
|
00513466   8B4030                 mov     eax, [eax+$30]

* Reference to: DB.TDataSet.Edit(TDataSet);
|
00513469   E8D29FF9FF             call    004AD440
0051346E   C3                     ret

*)
end;

procedure TfrmGenerico.btnExcluirClick(Sender : TObject);
begin
(*
00513470   55                     push    ebp
00513471   8BEC                   mov     ebp, esp
00513473   6A00                   push    $00
00513475   6A00                   push    $00
00513477   53                     push    ebx
00513478   56                     push    esi
00513479   57                     push    edi
0051347A   8BD8                   mov     ebx, eax
0051347C   33C0                   xor     eax, eax
0051347E   55                     push    ebp
0051347F   684B355100             push    $0051354B

***** TRY
|
00513484   64FF30                 push    dword ptr fs:[eax]
00513487   648920                 mov     fs:[eax], esp
0051348A   33C0                   xor     eax, eax
0051348C   55                     push    ebp
0051348D   68CA345100             push    $005134CA

***** TRY
|
00513492   64FF30                 push    dword ptr fs:[eax]
00513495   648920                 mov     fs:[eax], esp
00513498   6A00                   push    $00
0051349A   668B0D5C355100         mov     cx, word ptr [$0051355C]
005134A1   B203                   mov     dl, $03

* Possible String Reference to: 'ATENÇÃO !!! O registro atual será e
|                                xcluido.  Deseja continuar?'
|
005134A3   B868355100             mov     eax, $00513568

|
005134A8   E80F64F2FF             call    004398BC
005134AD   83F806                 cmp     eax, +$06
005134B0   750E                   jnz     005134C0

* Reference to control TfrmGenerico.dsGenerico : TDataSource
|
005134B2   8B8310030000           mov     eax, [ebx+$0310]

* Reference to field TDataSource.DataSet : TDataSet
|
005134B8   8B4030                 mov     eax, [eax+$30]

* Reference to: DB.TDataSet.Delete(TDataSet);
|
005134BB   E8B8A2F9FF             call    004AD778
005134C0   33C0                   xor     eax, eax
005134C2   5A                     pop     edx
005134C3   59                     pop     ecx
005134C4   59                     pop     ecx
005134C5   648910                 mov     fs:[eax], edx
005134C8   EB66                   jmp     00513530

* Reference to: System.@HandleOnException;
|
005134CA   E92505EFFF             jmp     004039F4
005134CF   0100                   add     [eax], eax
005134D1   0000                   add     [eax], al
005134D3   D0644D00               shl     byte ptr [ebp+ecx*2+$00], 1
005134D7   DB34                   DB  $DB, $34  //
005134D9   51                     push    ecx
005134DA   0089C36A0068           add     [ecx+$68006AC3], cl
005134E0   B035                   mov     al, $35
005134E2   51                     push    ecx
005134E3   0033                   add     [ebx], dh
005134E5   D28BC3E83368           ror     byte ptr [ebx+$6833E8C3], cl
005134EB   FC                     cld
005134EC   FF0F                   dec     dword ptr [edi]
005134EE   B740                   mov     bh, $40
005134F0   048D                   add     al, -$73
005134F2   55                     push    ebp
005134F3   F8                     clc

* Reference to: SysUtils.IntToStr(Integer):AnsiString;overload;
|
005134F4   E85F5AEFFF             call    00408F58
005134F9   FF75F8                 push    dword ptr [ebp-$08]

* Possible String Reference to: ' = '
|
005134FC   68DC355100             push    $005135DC
00513501   33D2                   xor     edx, edx
00513503   8BC3                   mov     eax, ebx

* Reference to: DBTables.EDBEngineError.GetError(EDBEngineError;Integer):TDBError;
|
00513505   E81668FCFF             call    004D9D20
0051350A   FF700C                 push    dword ptr [eax+$0C]
0051350D   8D45FC                 lea     eax, [ebp-$04]
00513510   BA04000000             mov     edx, $00000004

* Reference to: System.@LStrCatN;
|
00513515   E8BE10EFFF             call    004045D8
0051351A   8B45FC                 mov     eax, [ebp-$04]
0051351D   668B0DE0355100         mov     cx, word ptr [$005135E0]
00513524   B201                   mov     dl, $01

|
00513526   E89163F2FF             call    004398BC

* Reference to: System.@DoneExcept;
|
0051352B   E8C407EFFF             call    00403CF4

****** END
|
00513530   33C0                   xor     eax, eax
00513532   5A                     pop     edx
00513533   59                     pop     ecx
00513534   59                     pop     ecx
00513535   648910                 mov     fs:[eax], edx

****** FINALLY
|

* Possible String Reference to: '_^[YY]Ã'
|
00513538   6852355100             push    $00513552
0051353D   8D45F8                 lea     eax, [ebp-$08]
00513540   BA02000000             mov     edx, $00000002

* Reference to: System.@LStrArrayClr(void;void;Integer);
|
00513545   E8320DEFFF             call    0040427C
0051354A   C3                     ret


* Reference to: System.@HandleFinally;
|
0051354B   E92C06EFFF             jmp     00403B7C
00513550   EBEB                   jmp     0051353D

****** END
|
00513552   5F                     pop     edi
00513553   5E                     pop     esi
00513554   5B                     pop     ebx
00513555   59                     pop     ecx
00513556   59                     pop     ecx
00513557   5D                     pop     ebp
00513558   C3                     ret

*)
end;

procedure TfrmGenerico.btnAtualizarClick(Sender : TObject);
begin
(*
005135E4   53                     push    ebx
005135E5   56                     push    esi
005135E6   8BD8                   mov     ebx, eax
005135E8   8BCB                   mov     ecx, ebx
005135EA   B201                   mov     dl, $01

* Reference to class TfrmAVI02
|
005135EC   A188F54F00             mov     eax, dword ptr [$004FF588]

* Reference to: Forms.TCustomForm.Create(TCustomForm;boolean;TComponent);
|
005135F1   E82A51F7FF             call    00488720
005135F6   8BF0                   mov     esi, eax
005135F8   8BC6                   mov     eax, esi

* Reference to: Forms.TCustomForm.Show(TCustomForm);
|
005135FA   E87994F7FF             call    0048CA78

* Reference to control TfrmGenerico.dsGenerico : TDataSource
|
005135FF   8B8310030000           mov     eax, [ebx+$0310]

* Reference to field TDataSource.DataSet : TDataSet
|
00513605   8B4030                 mov     eax, [eax+$30]
00513608   33D2                   xor     edx, edx
0051360A   8B08                   mov     ecx, [eax]

* Reference to method TDataSet.SetFiltered(Boolean)
|
0051360C   FF9190010000           call    dword ptr [ecx+$0190]

* Reference to control TfrmGenerico.dsGenerico : TDataSource
|
00513612   8B8310030000           mov     eax, [ebx+$0310]

* Reference to field TDataSource.DataSet : TDataSet
|
00513618   8B4030                 mov     eax, [eax+$30]

* Reference to: DB.TDataSet.Close(TDataSet);
|
0051361B   E85C76F9FF             call    004AAC7C

* Reference to control TfrmGenerico.dsGenerico : TDataSource
|
00513620   8B8310030000           mov     eax, [ebx+$0310]

* Reference to field TDataSource.DataSet : TDataSet
|
00513626   8B4030                 mov     eax, [eax+$30]

* Reference to: DB.TDataSet.Open(TDataSet);
|
00513629   E84276F9FF             call    004AAC70
0051362E   8BC6                   mov     eax, esi

* Reference to: System.TObject.Free(TObject);
|
00513630   E8B3FDEEFF             call    004033E8
00513635   5E                     pop     esi
00513636   5B                     pop     ebx
00513637   C3                     ret

*)
end;

procedure TfrmGenerico.Sobre1Click(Sender : TObject);
begin
(*
00513638   8BD0                   mov     edx, eax

* Reference to class TfrmSuporte
|
0051363A   A198F24F00             mov     eax, dword ptr [$004FF298]

|
0051363F   E83C85FDFF             call    004EBB80
00513644   C3                     ret

*)
end;

procedure TfrmGenerico.btnLocClick(Sender : TObject);
begin
(*
00513648   53                     push    ebx
00513649   8BD8                   mov     ebx, eax
0051364B   B201                   mov     dl, $01

* Reference to control TfrmGenerico.pnlLoc : TPanel
|
0051364D   8B83F8020000           mov     eax, [ebx+$02F8]

* Reference to: Controls.TControl.SetVisible(TControl;Boolean);
|
00513653   E8D8BAF5FF             call    0046F130

* Reference to control TfrmGenerico.pnlLoc : TPanel
|
00513658   8B83F8020000           mov     eax, [ebx+$02F8]
0051365E   8B10                   mov     edx, [eax]

* Reference to method TPanel.SetFocus()
|
00513660   FF92C4000000           call    dword ptr [edx+$00C4]

* Reference to control TfrmGenerico.cboCampo : TComboBox
|
00513666   8B8368030000           mov     eax, [ebx+$0368]
0051366C   8B10                   mov     edx, [eax]

* Reference to method TComboBox.SetFocus()
|
0051366E   FF92C4000000           call    dword ptr [edx+$00C4]
00513674   5B                     pop     ebx
00513675   C3                     ret

*)
end;

procedure TfrmGenerico.btnLocalizarClick(Sender : TObject);
begin
(*
00513678   55                     push    ebp
00513679   8BEC                   mov     ebp, esp
0051367B   33C9                   xor     ecx, ecx
0051367D   51                     push    ecx
0051367E   51                     push    ecx
0051367F   51                     push    ecx
00513680   51                     push    ecx
00513681   51                     push    ecx
00513682   51                     push    ecx
00513683   53                     push    ebx
00513684   56                     push    esi
00513685   57                     push    edi
00513686   8945FC                 mov     [ebp-$04], eax
00513689   33C0                   xor     eax, eax
0051368B   55                     push    ebp
0051368C   680F385100             push    $0051380F

***** TRY
|
00513691   64FF30                 push    dword ptr fs:[eax]
00513694   648920                 mov     fs:[eax], esp
00513697   8D55F4                 lea     edx, [ebp-$0C]
0051369A   8B45FC                 mov     eax, [ebp-$04]

* Reference to control TfrmGenerico.edtFiltro : TEdit
|
0051369D   8B8070030000           mov     eax, [eax+$0370]

* Reference to: Controls.TControl.GetText(TControl):TCaption;
|
005136A3   E868BBF5FF             call    0046F210
005136A8   837DF400               cmp     dword ptr [ebp-$0C], +$00
005136AC   7505                   jnz     005136B3

* Reference to: SysUtils.Abort;
|
005136AE   E86D98EFFF             call    0040CF20
005136B3   33C0                   xor     eax, eax
005136B5   55                     push    ebp
005136B6   68A9375100             push    $005137A9

***** TRY
|
005136BB   64FF30                 push    dword ptr fs:[eax]
005136BE   648920                 mov     fs:[eax], esp
005136C1   8D55F0                 lea     edx, [ebp-$10]
005136C4   8B45FC                 mov     eax, [ebp-$04]

* Reference to control TfrmGenerico.lblTipo : TLabel
|
005136C7   8B8088030000           mov     eax, [eax+$0388]

* Reference to: Controls.TControl.GetText(TControl):TCaption;
|
005136CD   E83EBBF5FF             call    0046F210
005136D2   FF75F0                 push    dword ptr [ebp-$10]
005136D5   8D55EC                 lea     edx, [ebp-$14]
005136D8   8B45FC                 mov     eax, [ebp-$04]

* Reference to control TfrmGenerico.cboOp : TComboBox
|
005136DB   8B806C030000           mov     eax, [eax+$036C]

* Reference to: Controls.TControl.GetText(TControl):TCaption;
|
005136E1   E82ABBF5FF             call    0046F210
005136E6   FF75EC                 push    dword ptr [ebp-$14]
005136E9   6828385100             push    $00513828
005136EE   8D55E8                 lea     edx, [ebp-$18]
005136F1   8B45FC                 mov     eax, [ebp-$04]

* Reference to control TfrmGenerico.edtFiltro : TEdit
|
005136F4   8B8070030000           mov     eax, [eax+$0370]

* Reference to: Controls.TControl.GetText(TControl):TCaption;
|
005136FA   E811BBF5FF             call    0046F210
005136FF   FF75E8                 push    dword ptr [ebp-$18]
00513702   6828385100             push    $00513828
00513707   8D45F8                 lea     eax, [ebp-$08]
0051370A   BA05000000             mov     edx, $00000005

* Reference to: System.@LStrCatN;
|
0051370F   E8C40EEFFF             call    004045D8
00513714   8B45FC                 mov     eax, [ebp-$04]

* Reference to control TfrmGenerico.dsGenerico : TDataSource
|
00513717   8B8010030000           mov     eax, [eax+$0310]

* Reference to field TDataSource.DataSet : TDataSet
|
0051371D   8B4030                 mov     eax, [eax+$30]
00513720   8B55F8                 mov     edx, [ebp-$08]
00513723   8B08                   mov     ecx, [eax]

* Reference to method TDataSet.SetFilterText(string)
|
00513725   FF9198010000           call    dword ptr [ecx+$0198]
0051372B   8B45FC                 mov     eax, [ebp-$04]

* Reference to control TfrmGenerico.dsGenerico : TDataSource
|
0051372E   8B8010030000           mov     eax, [eax+$0310]

* Reference to field TDataSource.DataSet : TDataSet
|
00513734   8B4030                 mov     eax, [eax+$30]
00513737   B201                   mov     dl, $01
00513739   8B08                   mov     ecx, [eax]

* Reference to method TDataSet.SetFiltered(Boolean)
|
0051373B   FF9190010000           call    dword ptr [ecx+$0190]
00513741   8B45FC                 mov     eax, [ebp-$04]

* Reference to control TfrmGenerico.dsGenerico : TDataSource
|
00513744   8B8010030000           mov     eax, [eax+$0310]

* Reference to field TDataSource.DataSet : TDataSet
|
0051374A   8B7030                 mov     esi, [eax+$30]

* Reference to field TDataSet.Eof : Boolean
|
0051374D   80BEA100000000         cmp     byte ptr [esi+$00A1], $00
00513754   7507                   jnz     0051375D

* Reference to: Classes.TStream.WriteComponentRes(TStream;AnsiString;TComponent);
|
00513756   E875A1EFFF             call    0040D8D0
0051375B   EB42                   jmp     0051379F
0051375D   8BC6                   mov     eax, esi
0051375F   33D2                   xor     edx, edx
00513761   8B08                   mov     ecx, [eax]

* Reference to method TDataSet.SetFiltered(Boolean)
|
00513763   FF9190010000           call    dword ptr [ecx+$0190]
00513769   6A00                   push    $00
0051376B   668B0D2C385100         mov     cx, word ptr [$0051382C]
00513772   B202                   mov     dl, $02

* Possible String Reference to: 'ATENÇÃO !!! O valor atribuido ao pa
|                                ramento do filtro,não foi encontrad
|                                o.'
|
00513774   B838385100             mov     eax, $00513838

|
00513779   E83E61F2FF             call    004398BC
0051377E   8B45FC                 mov     eax, [ebp-$04]

* Reference to control TfrmGenerico.edtFiltro : TEdit
|
00513781   8B8070030000           mov     eax, [eax+$0370]
00513787   33D2                   xor     edx, edx

* Reference to: Controls.TControl.SetText(TControl;TCaption);
|
00513789   E8B2BAF5FF             call    0046F240
0051378E   8B45FC                 mov     eax, [ebp-$04]

* Reference to control TfrmGenerico.edtFiltro : TEdit
|
00513791   8B8070030000           mov     eax, [eax+$0370]
00513797   8B10                   mov     edx, [eax]

* Reference to method TEdit.SetFocus()
|
00513799   FF92C4000000           call    dword ptr [edx+$00C4]
0051379F   33C0                   xor     eax, eax
005137A1   5A                     pop     edx
005137A2   59                     pop     ecx
005137A3   59                     pop     ecx
005137A4   648910                 mov     fs:[eax], edx
005137A7   EB33                   jmp     005137DC

* Reference to: System.@HandleAnyException;
|
005137A9   E91A01EFFF             jmp     004038C8
005137AE   6A00                   push    $00
005137B0   668B0D2C385100         mov     cx, word ptr [$0051382C]
005137B7   B202                   mov     dl, $02

* Possible String Reference to: 'ATENÇÃO !!! Erro inesperado no filt
|                                ro.'
|
005137B9   B88C385100             mov     eax, $0051388C

|
005137BE   E8F960F2FF             call    004398BC
005137C3   48                     dec     eax
005137C4   7511                   jnz     005137D7
005137C6   8B45FC                 mov     eax, [ebp-$04]

* Reference to control TfrmGenerico.edtFiltro : TEdit
|
005137C9   8B8070030000           mov     eax, [eax+$0370]
005137CF   8B10                   mov     edx, [eax]

* Reference to method TEdit.SetFocus()
|
005137D1   FF92C4000000           call    dword ptr [edx+$00C4]

* Reference to: System.@DoneExcept;
|
005137D7   E81805EFFF             call    00403CF4

****** END
|
005137DC   8B45FC                 mov     eax, [ebp-$04]

* Reference to control TfrmGenerico.pnlLoc : TPanel
|
005137DF   8B80F8020000           mov     eax, [eax+$02F8]
005137E5   33D2                   xor     edx, edx

* Reference to: Controls.TControl.SetVisible(TControl;Boolean);
|
005137E7   E844B9F5FF             call    0046F130
005137EC   33C0                   xor     eax, eax
005137EE   5A                     pop     edx
005137EF   59                     pop     ecx
005137F0   59                     pop     ecx
005137F1   648910                 mov     fs:[eax], edx

****** FINALLY
|

* Possible String Reference to: '_^[‹å]Ã'
|
005137F4   6816385100             push    $00513816
005137F9   8D45E8                 lea     eax, [ebp-$18]
005137FC   BA04000000             mov     edx, $00000004

* Reference to: System.@LStrArrayClr(void;void;Integer);
|
00513801   E8760AEFFF             call    0040427C
00513806   8D45F8                 lea     eax, [ebp-$08]

* Reference to: System.@LStrClr(void;void);
|
00513809   E84A0AEFFF             call    00404258
0051380E   C3                     ret


* Reference to: System.@HandleFinally;
|
0051380F   E96803EFFF             jmp     00403B7C
00513814   EBE3                   jmp     005137F9

****** END
|
00513816   5F                     pop     edi
00513817   5E                     pop     esi
00513818   5B                     pop     ebx
00513819   8BE5                   mov     esp, ebp
0051381B   5D                     pop     ebp
0051381C   C3                     ret

*)
end;

procedure TfrmGenerico.FormShow(Sender : TObject);
begin
(*
005138B4   C3                     ret

*)
end;

procedure TfrmGenerico.FormClose(Sender : TObject);
begin
(*
005138B8   56                     push    esi
005138B9   8BF0                   mov     esi, eax

* Reference to control TfrmGenerico.dsGenerico : TDataSource
|
005138BB   8B8610030000           mov     eax, [esi+$0310]

* Reference to field TDataSource.DataSet : TDataSet
|
005138C1   8B4030                 mov     eax, [eax+$30]
005138C4   33D2                   xor     edx, edx
005138C6   8B08                   mov     ecx, [eax]

* Reference to method TDataSet.SetFiltered(Boolean)
|
005138C8   FF9190010000           call    dword ptr [ecx+$0190]
005138CE   5E                     pop     esi
005138CF   C3                     ret

*)
end;

procedure TfrmGenerico.edtFiltroKeyPress(Sender : TObject);
begin
(*
005138D0   53                     push    ebx
005138D1   8BD9                   mov     ebx, ecx
005138D3   8A03                   mov     al, byte ptr [ebx]
005138D5   2C08                   sub     al, $08
005138D7   742B                   jz      00513904
005138D9   04D8                   add     al, -$28
005138DB   2C0A                   sub     al, $0A
005138DD   7225                   jb      00513904
005138DF   8A03                   mov     al, byte ptr [ebx]
005138E1   2C08                   sub     al, $08
005138E3   741F                   jz      00513904
005138E5   04C7                   add     al, -$39
005138E7   2C1A                   sub     al, $1A
005138E9   7219                   jb      00513904
005138EB   8A03                   mov     al, byte ptr [ebx]
005138ED   2C08                   sub     al, $08
005138EF   7413                   jz      00513904
005138F1   04A7                   add     al, -$59
005138F3   2C1A                   sub     al, $1A
005138F5   720D                   jb      00513904
005138F7   803B20                 cmp     byte ptr [ebx], $20
005138FA   7408                   jz      00513904

* Reference to: Classes.TStream.WriteComponentRes(TStream;AnsiString;TComponent);
|
005138FC   E8CF9FEFFF             call    0040D8D0
00513901   C60300                 mov     byte ptr [ebx], $00
00513904   5B                     pop     ebx
00513905   C3                     ret

*)
end;

procedure TfrmGenerico._PROC_0051354B(Sender : TObject);
begin
(*

* Reference to: System.@HandleFinally;
|
0051354B   E92C06EFFF             jmp     00403B7C

|
00513550   EBEB                   jmp     0051353D
00513552   5F                     pop     edi
00513553   5E                     pop     esi
00513554   5B                     pop     ebx
00513555   59                     pop     ecx
00513556   59                     pop     ecx
00513557   5D                     pop     ebp
00513558   C3                     ret

*)
end;

procedure TfrmGenerico._PROC_00513909(Sender : TObject);
begin
(*
00513909   8BEC                   mov     ebp, esp
0051390B   33C0                   xor     eax, eax
0051390D   55                     push    ebp
0051390E   682D395100             push    $0051392D

***** TRY
|
00513913   64FF30                 push    dword ptr fs:[eax]
00513916   648920                 mov     fs:[eax], esp
00513919   FF058CC05400           inc     dword ptr [$0054C08C]
0051391F   33C0                   xor     eax, eax
00513921   5A                     pop     edx
00513922   59                     pop     ecx
00513923   59                     pop     ecx
00513924   648910                 mov     fs:[eax], edx

****** FINALLY
|

* Possible String Reference to: ']Ã‹Àƒ-ŒÀT'
|
00513927   6834395100             push    $00513934
0051392C   C3                     ret


* Reference to: System.@HandleFinally;
|
0051392D   E94A02EFFF             jmp     00403B7C
00513932   EBF8                   jmp     0051392C

****** END
|
00513934   5D                     pop     ebp
00513935   C3                     ret

*)
end;

procedure TfrmGenerico._PROC_00513938(Sender : TObject);
begin
(*
00513938   832D8CC0540001         sub     dword ptr [$0054C08C], +$01
0051393F   C3                     ret

*)
end;

procedure TfrmGenerico._PROC_00513940(Sender : TObject);
begin
(*
00513940   8C39                   mov     word ptr [ecx], 
00513942   51                     push    ecx
00513943   0000                   add     [eax], al

*)
end;

procedure TfrmGenerico._PROC_00513A12(Sender : TObject);
begin
(*
00513A12   47                     inc     edi
00513A13   00E4                   add     ah, ah
00513A15   5A                     pop     edx
00513A16   47                     inc     edi
00513A17   0028                   add     [eax], ch
00513A19   854800                 test    [eax+$00], ecx
00513A1C   2C9D                   sub     al, $9D
00513A1E   48                     dec     eax
00513A1F   00F4                   add     ah, dh
00513A21   2F                     das
00513A22   47                     inc     edi
00513A23   00F0                   add     al, dh
00513A25   A9480050AD             test    eax, $AD500048
00513A2A   48                     dec     eax
00513A2B   000CAC                 add     [esp+ebp*4], cl
00513A2E   48                     dec     eax
00513A2F   008C3047009030         add     [eax+esi+$30900047], cl
00513A36   47                     inc     edi
00513A37   0088AE4800F0           add     [eax+$F00048AE], cl
00513A3D   2E47                   inc     edi
00513A3F   00245C                 add     [esp+ebx*2], ah
00513A42   47                     inc     edi
00513A43   007CB548               add     [ebp+esi*4+$48], bh
00513A47   0018                   add     [eax], bl
00513A49   6E                     outsb
00513A4A   47                     inc     edi
00513A4B   006858                 add     [eax+$58], ch
00513A4E   47                     inc     edi
00513A4F   0090CA48001C           add     [eax+$1C0048CA], dl
00513A55   7F48                   jnle    00513A9F
00513A57   00CC                   add     ah, cl
00513A59   81480070BB4800         or      dword ptr [eax+$00], $0048BB70
00513A60   AC                     lodsb
00513A61   8B4800                 mov     ecx, [eax+$00]
00513A64   288C480070CE48         sub     [eax+ecx*2+$48CE7000], cl
00513A6B   00E4                   add     ah, ah
00513A6D   884800                 mov     [eax+$00], cl
00513A70   74C9                   jz      00513A3B
00513A72   48                     dec     eax
00513A73   0054B048               add     [eax+esi*4+$48], dl
00513A77   0028                   add     [eax], ch
00513A79   CB                     ret

00513A7A   48                     dec     eax
00513A7B   000C96                 add     [esi+edx*4], cl
00513A7E   48                     dec     eax
00513A7F   0006                   add     [esi], al
00513A81   006C3B51               add     [ebx+edi+$51], ch
00513A85   00F8                   add     al, bh
00513A87   0200                   add     al, byte ptr [eax]
00513A89   0000                   add     [eax], al

00513A8B   000B                   add     [ebx], cl
00513A8D   706E                   jo      00513AFD
00513A8F   6C                     insb
00513A90   47                     inc     edi
00513A91   656E                   outsb
00513A93   657269                 jb      00513AFF
00513A96   636FFC                 arpl    [edi-$04], bp
00513A99   0200                   add     al, byte ptr [eax]
00513A9B   0000                   add     [eax], al

00513A9D   0006                   add     [esi], al
00513A9F   50                     push    eax
00513AA0   61                     popa
00513AA1   6E                     outsb
00513AA2   656C                   insb
00513AA4   3100                   xor     [eax], eax
00513AA6   0300                   add     eax, [eax]
00513AA8   0001                   add     [ecx], al
00513AAA   000A                   add     [edx], cl
00513AAC   647347                 jnb     00513AF6
00513AAF   656E                   outsb
00513AB1   657269                 jb      00513B1D
00513AB4   636F04                 arpl    [edi+$04], bp
00513AB7   0300                   add     eax, [eax]
00513AB9   0002                   add     [edx], al
00513ABB   000A                   add     [edx], cl
00513ABD   53                     push    ebx
00513ABE   7461                   jz      00513B21
00513AC0   7475                   jz      00513B37
00513AC2   7342                   jnb     00513B06
00513AC4   61                     popa
00513AC5   7231                   jb      00513AF8
00513AC7   0803                   or      [ebx], al
00513AC9   0000                   add     [eax], al

00513ACB   0300                   add     eax, [eax]
00513ACD   0B6274                 or      esp, [edx+$74]
00513AD0   6E                     outsb
00513AD1   43                     inc     ebx
00513AD2   61                     popa
00513AD3   6E                     outsb
00513AD4   63656C                 arpl    [ebp+$6C], sp
00513AD7   61                     popa
00513AD8   720C                   jb      00513AE6
00513ADA   0300                   add     eax, [eax]
00513ADC   0003                   add     [ebx], al
00513ADE   000C62                 add     [edx], cl
00513AE1   746E                   jz      00513B51
00513AE3   43                     inc     ebx
00513AE4   6F                     outsd
00513AE5   6E                     outsb
00513AE6   6669726D6172           imul    si, word ptr [edx+$6D], $7261
00513AEC   06                     push    es
00513AED   0018                   add     [eax], bl
00513AEF   00B43B51001162         add     [ebx+edi+$62110051], dh
00513AF6   746E                   jz      00513B66
00513AF8   43                     inc     ebx
00513AF9   6F                     outsd
00513AFA   6E                     outsb
00513AFB   6669726D6172           imul    si, word ptr [edx+$6D], $7261
00513B01   43                     inc     ebx
00513B02   6C                     insb
00513B03   69636B17000C3E         imul    esp, [ebx+$6B], $3E0C0017
00513B0A   51                     push    ecx
00513B0B   0010                   add     [eax], dl
00513B0D   62746E43               bound   esi, qword ptr [esi+ebp*2+$43]
00513B11   61                     popa
00513B12   6E                     outsb
00513B13   63656C                 arpl    [ebp+$6C], sp
00513B16   61                     popa
00513B17   7243                   jb      00513B5C
00513B19   6C                     insb
00513B1A   69636B13009C3E         imul    esp, [ebx+$6B], $3E9C0013
00513B21   51                     push    ecx
00513B22   000C46                 add     [esi+eax*2], cl
00513B25   6F                     outsd
00513B26   726D                   jb      00513B95
00513B28   41                     inc     ecx
00513B29   63746976               arpl    [ecx+ebp*2+$76], si
00513B2D   61                     popa
00513B2E   7465                   jz      00513B95
00513B30   1000                   adc     [eax], al
00513B32   6C                     insb
00513B33   3F                     aas
00513B34   51                     push    ecx
00513B35   0009                   add     [ecx], cl
00513B37   46                     inc     esi
00513B38   6F                     outsd
00513B39   726D                   jb      00513BA8
00513B3B   43                     inc     ebx
00513B3C   6C                     insb
00513B3D   6F                     outsd
00513B3E   7365                   jnb     00513BA5
00513B40   0F0074                 DB  $0F, $00, $74  //      
00513B43   3F                     aas
00513B44   51                     push    ecx
00513B45   0008                   add     [eax], cl
00513B47   46                     inc     esi
00513B48   6F                     outsd
00513B49   726D                   jb      00513BB8
00513B4B   53                     push    ebx
00513B4C   686F770D00             push    $000D776F
00513B51   DC3F                   fdivr   qword ptr [edi]
00513B53   51                     push    ecx
00513B54   0006                   add     [esi], al
00513B56   41                     inc     ecx
00513B57   63656E                 arpl    [ebp+$6E], sp
00513B5A   746F                   jz      00513BCB
00513B5C   0F54                   DB  $0F, $54  //
00513B5E   66726D                 jb      00513BCE
00513B61   43                     inc     ebx
00513B62   61                     popa
00513B63   6447                   inc     edi
00513B65   656E                   outsb
00513B67   657269                 jb      00513BD3
00513B6A   636F04                 arpl    [edi+$04], bp
00513B6D   00A0A64300E0           add     [eax+$E00043A6], ah
00513B73   DA4900                 fimul   dword ptr [ecx+$00]
00513B76   7048                   jo      00513BC0
00513B78   44                     inc     esp
00513B79   007CEE43               add     [esi+ebp*8+$43], bh
00513B7D   008BC0843B51           add     [ebx+$513B84C0], cl
00513B83   0007                   add     [edi], al
00513B85   0F54                   DB  $0F, $54  //
00513B87   66726D                 jb      00513BF7
00513B8A   43                     inc     ebx
00513B8B   61                     popa
00513B8C   6447                   inc     edi
00513B8E   656E                   outsb
00513B90   657269                 jb      00513BFC
00513B93   636F8C                 arpl    [edi-$74], bp
00513B96   395100                 cmp     [ecx+$00], edx
00513B99   98                     cwde 
00513B9A   5C                     pop     esp
00513B9B   48                     dec     eax
00513B9C   005E00                 add     [esi+$00], bl
00513B9F   0F756E69               pcmpeqw MM5, [esi+$69]
00513BA3   7443                   jz      00513BE8
00513BA5   61                     popa
00513BA6   6447                   inc     edi
00513BA8   656E                   outsb
00513BAA   657269                 jb      00513C16
00513BAD   636F00                 arpl    [edi+$00], bp
00513BB0   008D4000558B           add     [ebp+$8B550040], cl
00513BB6   EC                     in      al, dx
00513BB7   6A00                   push    $00
00513BB9   6A00                   push    $00
00513BBB   53                     push    ebx
00513BBC   56                     push    esi
00513BBD   57                     push    edi
00513BBE   8BD8                   mov     ebx, eax
00513BC0   33C0                   xor     eax, eax
00513BC2   55                     push    ebp

* Possible String Reference to: 'éXþîÿëë_^[YY]Ã'
|
00513BC3   681F3D5100             push    $00513D1F

***** TRY
|
00513BC8   64FF30                 push    dword ptr fs:[eax]
00513BCB   648920                 mov     fs:[eax], esp
00513BCE   33C0                   xor     eax, eax
00513BD0   55                     push    ebp
00513BD1   684E3C5100             push    $00513C4E

***** TRY
|
00513BD6   64FF30                 push    dword ptr fs:[eax]
00513BD9   648920                 mov     fs:[eax], esp
00513BDC   6A00                   push    $00
00513BDE   668B0D303D5100         mov     cx, word ptr [$00513D30]
00513BE5   B203                   mov     dl, $03

* Possible String Reference to: 'ATENÇÃO !Deseja realmente confirmar
|                                 esta operação?'
|
00513BE7   B83C3D5100             mov     eax, $00513D3C

|
00513BEC   E8CB5CF2FF             call    004398BC
00513BF1   83F806                 cmp     eax, +$06
00513BF4   754B                   jnz     00513C41
00513BF6   8B8300030000           mov     eax, [ebx+$0300]
00513BFC   8B7030                 mov     esi, [eax+$30]
00513BFF   8A869D000000           mov     al, byte ptr [esi+$009D]
00513C05   04FE                   add     al, -$02
00513C07   2C02                   sub     al, $02
00513C09   732F                   jnb     00513C3A
00513C0B   8BC6                   mov     eax, esi
00513C0D   8B10                   mov     edx, [eax]
00513C0F   FF924C020000           call    dword ptr [edx+$024C]
00513C15   8B8300030000           mov     eax, [ebx+$0300]
00513C1B   8B4030                 mov     eax, [eax+$30]

* Reference to: DB.TDataSet.Close(TDataSet);
|
00513C1E   E85970F9FF             call    004AAC7C
00513C23   8B8300030000           mov     eax, [ebx+$0300]
00513C29   8B4030                 mov     eax, [eax+$30]

* Reference to: DB.TDataSet.Open(TDataSet);
|
00513C2C   E83F70F9FF             call    004AAC70
00513C31   8BC3                   mov     eax, ebx

* Reference to: Forms.TCustomForm.Close(TCustomForm);
|
00513C33   E8988CF7FF             call    0048C8D0
00513C38   EB07                   jmp     00513C41
00513C3A   8BC3                   mov     eax, ebx

* Reference to: Forms.TCustomForm.Close(TCustomForm);
|
00513C3C   E88F8CF7FF             call    0048C8D0
00513C41   33C0                   xor     eax, eax
00513C43   5A                     pop     edx
00513C44   59                     pop     ecx
00513C45   59                     pop     ecx
00513C46   648910                 mov     fs:[eax], edx
00513C49   E9B6000000             jmp     00513D04

* Reference to: System.@HandleOnException;
|
00513C4E   E9A1FDEEFF             jmp     004039F4
00513C53   0100                   add     [eax], eax
00513C55   0000                   add     [eax], al
00513C57   D0644D00               shl     byte ptr [ebp+ecx*2+$00], 1
00513C5B   5F                     pop     edi
00513C5C   3C51                   cmp     al, $51
00513C5E   0089C333D28B           add     [ecx+$8BD233C3], cl
00513C64   C3                     ret


* Reference to: DBTables.EDBEngineError.GetError(EDBEngineError;Integer):TDBError;
|
00513C65   E8B660FCFF             call    004D9D20
00513C6A   668178040126           cmp     word ptr [eax+$04], $2601
00513C70   7517                   jnz     00513C89
00513C72   6A00                   push    $00
00513C74   668B0D703D5100         mov     cx, word ptr [$00513D70]
00513C7B   B202                   mov     dl, $02

* Possible String Reference to: 'ATENÇÃO !!! Código já existe no cad
|                                astro'
|
00513C7D   B87C3D5100             mov     eax, $00513D7C

|
00513C82   E8355CF2FF             call    004398BC
00513C87   EB76                   jmp     00513CFF
00513C89   33D2                   xor     edx, edx
00513C8B   8BC3                   mov     eax, ebx

* Reference to: DBTables.EDBEngineError.GetError(EDBEngineError;Integer):TDBError;
|
00513C8D   E88E60FCFF             call    004D9D20
00513C92   668178040333           cmp     word ptr [eax+$04], $3303
00513C98   7517                   jnz     00513CB1
00513C9A   6A00                   push    $00
00513C9C   668B0D703D5100         mov     cx, word ptr [$00513D70]
00513CA3   B202                   mov     dl, $02

* Possible String Reference to: 'ATENÇÃO !!! Campo(s) requeridos.'
|
00513CA5   B8B03D5100             mov     eax, $00513DB0

|
00513CAA   E80D5CF2FF             call    004398BC
00513CAF   EB4E                   jmp     00513CFF
00513CB1   6A00                   push    $00

* Possible String Reference to: 'ERRO NO SISTEMA !!! Código do erro '
|
00513CB3   68DC3D5100             push    $00513DDC
00513CB8   33D2                   xor     edx, edx
00513CBA   8BC3                   mov     eax, ebx

* Reference to: DBTables.EDBEngineError.GetError(EDBEngineError;Integer):TDBError;
|
00513CBC   E85F60FCFF             call    004D9D20
00513CC1   0FB74004               movzx   eax, word ptr [eax+$04]
00513CC5   8D55F8                 lea     edx, [ebp-$08]

* Reference to: SysUtils.IntToStr(Integer):AnsiString;overload;
|
00513CC8   E88B52EFFF             call    00408F58
00513CCD   FF75F8                 push    dword ptr [ebp-$08]

* Possible String Reference to: ' = '
|
00513CD0   68083E5100             push    $00513E08
00513CD5   33D2                   xor     edx, edx
00513CD7   8BC3                   mov     eax, ebx

* Reference to: DBTables.EDBEngineError.GetError(EDBEngineError;Integer):TDBError;
|
00513CD9   E84260FCFF             call    004D9D20
00513CDE   FF700C                 push    dword ptr [eax+$0C]
00513CE1   8D45FC                 lea     eax, [ebp-$04]
00513CE4   BA04000000             mov     edx, $00000004

* Reference to: System.@LStrCatN;
|
00513CE9   E8EA08EFFF             call    004045D8
00513CEE   8B45FC                 mov     eax, [ebp-$04]
00513CF1   668B0D703D5100         mov     cx, word ptr [$00513D70]
00513CF8   B201                   mov     dl, $01

|
00513CFA   E8BD5BF2FF             call    004398BC

* Reference to: System.@DoneExcept;
|
00513CFF   E8F0FFEEFF             call    00403CF4
00513D04   33C0                   xor     eax, eax
00513D06   5A                     pop     edx
00513D07   59                     pop     ecx
00513D08   59                     pop     ecx
00513D09   648910                 mov     fs:[eax], edx

****** FINALLY
|

* Possible String Reference to: '_^[YY]Ã'
|
00513D0C   68263D5100             push    $00513D26
00513D11   8D45F8                 lea     eax, [ebp-$08]
00513D14   BA02000000             mov     edx, $00000002

* Reference to: System.@LStrArrayClr(void;void;Integer);
|
00513D19   E85E05EFFF             call    0040427C
00513D1E   C3                     ret

*)
end;

end.